target datalayout = "e-m:e-p270:32:32-p271:32:32-p272:64:64-i64:64-i128:128-f80:128-n8:16:32:64-S128"
target triple = "x86_64-pc-linux-gnu"

; Function Attrs: nounwind uwtable
define dso_local i32 @open_commit_graph(ptr noundef %0, ptr noundef %1, ptr noundef %2) #0 {
  %4 = alloca i32, align 4
  %5 = alloca ptr, align 8
  %6 = alloca ptr, align 8
  %7 = alloca ptr, align 8
  store ptr %0, ptr %5, align 8, !tbaa !65
  store ptr %1, ptr %6, align 8, !tbaa !66
  store ptr %2, ptr %7, align 8, !tbaa !68
  %8 = load ptr, ptr %5, align 8, !tbaa !65
  %9 = call i32 @git_open_cloexec(ptr noundef %8, i32 noundef 0)
  %10 = load ptr, ptr %6, align 8, !tbaa !66
  store i32 %9, ptr %10, align 4, !tbaa !4
  %11 = load ptr, ptr %6, align 8, !tbaa !66
  %12 = load i32, ptr %11, align 4, !tbaa !4
  %13 = icmp slt i32 %12, 0
  br i1 %13, label %14, label %15

14:                                               ; preds = %3
  store i32 0, ptr %4, align 4
  br label %26

15:                                               ; preds = %3
  %16 = load ptr, ptr %6, align 8, !tbaa !66
  %17 = load i32, ptr %16, align 4, !tbaa !4
  %18 = load ptr, ptr %7, align 8, !tbaa !68
  %19 = call i32 @fstat64(i32 noundef %17, ptr noundef %18) #12
  %20 = icmp ne i32 %19, 0
  br i1 %20, label %21, label %25

21:                                               ; preds = %15
  %22 = load ptr, ptr %6, align 8, !tbaa !66
  %23 = load i32, ptr %22, align 4, !tbaa !4
  %24 = call i32 @close(i32 noundef %23)
  store i32 0, ptr %4, align 4
  br label %26

25:                                               ; preds = %15
  store i32 1, ptr %4, align 4
  br label %26

26:                                               ; preds = %25, %21, %14
  %27 = load i32, ptr %4, align 4
  ret i32 %27
}