; Function Attrs: nounwind uwtable
define dso_local range(i32 0, 2) i32 @open_commit_graph(ptr noundef %0, ptr noundef captures(none) initializes((0, 4)) %1, ptr noundef captures(none) %2) local_unnamed_addr #0 {
  %4 = tail call i32 @git_open_cloexec(ptr noundef %0, i32 noundef 0) #24
  store i32 %4, ptr %1, align 4, !tbaa !47
  %5 = icmp slt i32 %4, 0
  br i1 %5, label %11, label %6

6:                                                ; preds = %3
  %7 = tail call i32 @fstat64(i32 noundef %4, ptr noundef %2) #24
  %.not = icmp eq i32 %7, 0
  br i1 %.not, label %11, label %8

8:                                                ; preds = %6
  %9 = load i32, ptr %1, align 4, !tbaa !47
  %10 = tail call i32 @close(i32 noundef %9) #24
  br label %11

11:                                               ; preds = %6, %3, %8
  %.0 = phi i32 [ 0, %8 ], [ 0, %3 ], [ 1, %6 ]
  ret i32 %.0
}